target datalayout = "e-m:e-p270:32:32-p271:32:32-p272:64:64-i64:64-i128:128-f80:128-n8:16:32:64-S128"
target triple = "x86_64-pc-linux-gnu"

%"class.OpenSubdiv::v3_6_0::Bfr::(anonymous namespace)::FacetArray" = type { ptr, i32, i32 }

; Function Attrs: mustprogress nounwind uwtable
define internal void @_ZN10OpenSubdiv6v3_6_03Bfr12_GLOBAL__N_110FacetArrayC2EPiii(ptr noundef nonnull align 8 dereferenceable(16) %0, ptr noundef %1, i32 noundef %2, i32 noundef %3) unnamed_addr #1 align 2 {
  %5 = alloca ptr, align 8
  %6 = alloca ptr, align 8
  %7 = alloca i32, align 4
  %8 = alloca i32, align 4
  store ptr %0, ptr %5, align 8
  store ptr %1, ptr %6, align 8
  store i32 %2, ptr %7, align 4
  store i32 %3, ptr %8, align 4
  %9 = load ptr, ptr %5, align 8
  %10 = getelementptr inbounds nuw %"class.OpenSubdiv::v3_6_0::Bfr::(anonymous namespace)::FacetArray", ptr %9, i32 0, i32 0
  %11 = load ptr, ptr %6, align 8
  store ptr %11, ptr %10, align 8
  %12 = getelementptr inbounds nuw %"class.OpenSubdiv::v3_6_0::Bfr::(anonymous namespace)::FacetArray", ptr %9, i32 0, i32 1
  %13 = load i32, ptr %7, align 4
  store i32 %13, ptr %12, align 8
  %14 = getelementptr inbounds nuw %"class.OpenSubdiv::v3_6_0::Bfr::(anonymous namespace)::FacetArray", ptr %9, i32 0, i32 2
  %15 = load i32, ptr %8, align 4
  store i32 %15, ptr %14, align 4
  ret void
}

; Function Attrs: mustprogress nounwind uwtable
define internal void @_ZN10OpenSubdiv6v3_6_03Bfr12_GLOBAL__N_110FacetArrayD2Ev(ptr noundef nonnull align 8 dereferenceable(16) %0) unnamed_addr #1 align 2 {
  %2 = alloca ptr, align 8
  store ptr %0, ptr %2, align 8
  ret void
}

; Function Attrs: mustprogress uwtable
define internal void @_ZN10OpenSubdiv6v3_6_03Bfr12_GLOBAL__N_110FacetArrayplEi(ptr dead_on_unwind noalias writable sret(%"class.OpenSubdiv::v3_6_0::Bfr::(anonymous namespace)::FacetArray") align 8 %0, ptr noundef nonnull align 8 dereferenceable(16) %1, i32 noundef %2) #0 align 2 {
  %4 = alloca ptr, align 8
  %5 = alloca ptr, align 8
  %6 = alloca i32, align 4
  store ptr %0, ptr %4, align 8
  store ptr %1, ptr %5, align 8
  store i32 %2, ptr %6, align 4
  %7 = load ptr, ptr %5, align 8
  %8 = getelementptr inbounds nuw %"class.OpenSubdiv::v3_6_0::Bfr::(anonymous namespace)::FacetArray", ptr %7, i32 0, i32 0
  %9 = load ptr, ptr %8, align 8
  %10 = load i32, ptr %6, align 4
  %11 = getelementptr inbounds nuw %"class.OpenSubdiv::v3_6_0::Bfr::(anonymous namespace)::FacetArray", ptr %7, i32 0, i32 2
  %12 = load i32, ptr %11, align 4
  %13 = mul nsw i32 %10, %12
  %14 = sext i32 %13 to i64
  %15 = getelementptr inbounds i32, ptr %9, i64 %14
  %16 = getelementptr inbounds nuw %"class.OpenSubdiv::v3_6_0::Bfr::(anonymous namespace)::FacetArray", ptr %7, i32 0, i32 1
  %17 = load i32, ptr %16, align 8
  %18 = getelementptr inbounds nuw %"class.OpenSubdiv::v3_6_0::Bfr::(anonymous namespace)::FacetArray", ptr %7, i32 0, i32 2
  %19 = load i32, ptr %18, align 4
  call void @_ZN10OpenSubdiv6v3_6_03Bfr12_GLOBAL__N_110FacetArrayC2EPiii(ptr noundef nonnull align 8 dereferenceable(16) %0, ptr noundef %15, i32 noundef %17, i32 noundef %19)
  ret void
}

; Function Attrs: mustprogress uwtable
define internal noundef i32 @_ZN10OpenSubdiv6v3_6_03Bfr3tri16GetUniformFacetsEiNS1_12_GLOBAL__N_110FacetArrayE(i32 noundef %0, ptr noundef %1) #0 align 2 personality ptr @__gxx_personality_v0 {
  %3 = alloca i32, align 4
  %4 = alloca ptr, align 8
  %5 = alloca i32, align 4
  %6 = alloca i32, align 4
  %7 = alloca i32, align 4
  %8 = alloca i32, align 4
  %9 = alloca %"class.OpenSubdiv::v3_6_0::Bfr::(anonymous namespace)::FacetArray", align 8
  %10 = alloca ptr, align 8
  %11 = alloca i32, align 4
  store i32 %0, ptr %3, align 4
  store ptr %1, ptr %4, align 8
  %12 = load i32, ptr %3, align 4
  %13 = sdiv i32 %12, 3
  %14 = add nsw i32 1, %13
  store i32 %14, ptr %5, align 4
  store i32 0, ptr %6, align 4
  store i32 0, ptr %7, align 4
  store i32 0, ptr %8, align 4
  br label %15

15:                                               ; preds = %31, %2
  %16 = load i32, ptr %8, align 4
  %17 = load i32, ptr %5, align 4
  %18 = icmp slt i32 %16, %17
  br i1 %18, label %19, label %40

19:                                               ; preds = %15
  %20 = load i32, ptr %3, align 4
  %21 = load i32, ptr %7, align 4
  %22 = load i32, ptr %6, align 4
  call void @_ZN10OpenSubdiv6v3_6_03Bfr12_GLOBAL__N_110FacetArrayplEi(ptr dead_on_unwind writable sret(%"class.OpenSubdiv::v3_6_0::Bfr::(anonymous namespace)::FacetArray") align 8 %9, ptr noundef nonnull align 8 dereferenceable(16) %1, i32 noundef %22)
  %23 = invoke noundef i32 @_ZN10OpenSubdiv6v3_6_03Bfr3tri21getInteriorRingFacetsEiiNS1_12_GLOBAL__N_110FacetArrayE(i32 noundef %20, i32 noundef %21, ptr noundef %9)
          to label %24 unwind label %36

24:                                               ; preds = %19
  %25 = load i32, ptr %6, align 4
  %26 = add nsw i32 %25, %23
  store i32 %26, ptr %6, align 4
  call void @_ZN10OpenSubdiv6v3_6_03Bfr12_GLOBAL__N_110FacetArrayD2Ev(ptr noundef nonnull align 8 dereferenceable(16) %9) #8
  %27 = load i32, ptr %3, align 4
  %28 = mul nsw i32 3, %27
  %29 = load i32, ptr %7, align 4
  %30 = add nsw i32 %29, %28
  store i32 %30, ptr %7, align 4
  br label %31

31:                                               ; preds = %24
  %32 = load i32, ptr %8, align 4
  %33 = add nsw i32 %32, 1
  store i32 %33, ptr %8, align 4
  %34 = load i32, ptr %3, align 4
  %35 = sub nsw i32 %34, 3
  store i32 %35, ptr %3, align 4
  br label %15, !llvm.loop !34

36:                                               ; preds = %19
  %37 = landingpad { ptr, i32 }
          cleanup
  %38 = extractvalue { ptr, i32 } %37, 0
  store ptr %38, ptr %10, align 8
  %39 = extractvalue { ptr, i32 } %37, 1
  store i32 %39, ptr %11, align 4
  call void @_ZN10OpenSubdiv6v3_6_03Bfr12_GLOBAL__N_110FacetArrayD2Ev(ptr noundef nonnull align 8 dereferenceable(16) %9) #8
  br label %42

40:                                               ; preds = %15
  %41 = load i32, ptr %6, align 4
  ret i32 %41

42:                                               ; preds = %36
  %43 = load ptr, ptr %10, align 8
  %44 = load i32, ptr %11, align 4
  %45 = insertvalue { ptr, i32 } poison, ptr %43, 0
  %46 = insertvalue { ptr, i32 } %45, i32 %44, 1
  resume { ptr, i32 } %46
}