; Function Attrs: mustprogress nofree norecurse nosync nounwind memory(write, argmem: readwrite, inaccessiblemem: readwrite) uwtable
define internal fastcc noundef i32 @_ZN10OpenSubdiv6v3_6_03Bfr3tri16GetUniformFacetsEiNS1_12_GLOBAL__N_110FacetArrayE(i32 noundef %0, ptr nocapture noundef readonly %1) unnamed_addr #14 align 2 personality ptr @__gxx_personality_v0 {
  %3 = alloca %"class.OpenSubdiv::v3_6_0::Bfr::(anonymous namespace)::FacetArray", align 8
  %.not16 = icmp slt i32 %0, -2
  br i1 %.not16, label %._crit_edge, label %.lr.ph

.lr.ph:                                           ; preds = %2
  %4 = sdiv i32 %0, 3
  %5 = getelementptr inbounds nuw i8, ptr %1, i64 12
  %6 = getelementptr inbounds nuw i8, ptr %1, i64 8
  %7 = getelementptr inbounds nuw i8, ptr %3, i64 8
  %8 = getelementptr inbounds nuw i8, ptr %3, i64 12
  br label %9

9:                                                ; preds = %.lr.ph, %9
  %.020 = phi i32 [ %0, %.lr.ph ], [ %21, %9 ]
  %.01319 = phi i32 [ 0, %.lr.ph ], [ %17, %9 ]
  %.01418 = phi i32 [ 0, %.lr.ph ], [ %20, %9 ]
  %.01517 = phi i32 [ 0, %.lr.ph ], [ %19, %9 ]
  tail call void @llvm.experimental.noalias.scope.decl(metadata !69)
  %10 = load ptr, ptr %1, align 8, !noalias !69
  %11 = load i32, ptr %5, align 4, !noalias !69
  %12 = mul nsw i32 %11, %.01319
  %13 = sext i32 %12 to i64
  %14 = getelementptr inbounds i32, ptr %10, i64 %13
  %15 = load i32, ptr %6, align 8, !noalias !69
  store ptr %14, ptr %3, align 8, !alias.scope !69
  store i32 %15, ptr %7, align 8, !alias.scope !69
  store i32 %11, ptr %8, align 4, !alias.scope !69
  %16 = call fastcc noundef i32 @_ZN10OpenSubdiv6v3_6_03Bfr3tri21getInteriorRingFacetsEiiNS1_12_GLOBAL__N_110FacetArrayE(i32 noundef %.020, i32 noundef %.01517, ptr noundef nonnull %3)
  %17 = add nsw i32 %16, %.01319
  %18 = mul nsw i32 %.020, 3
  %19 = add nsw i32 %18, %.01517
  %20 = add nuw nsw i32 %.01418, 1
  %21 = add nsw i32 %.020, -3
  %exitcond.not = icmp eq i32 %.01418, %4
  br i1 %exitcond.not, label %._crit_edge, label %9, !llvm.loop !72

._crit_edge:                                      ; preds = %9, %2
  %.013.lcssa = phi i32 [ 0, %2 ], [ %17, %9 ]
  ret i32 %.013.lcssa
}